target datalayout = "e-m:e-p270:32:32-p271:32:32-p272:64:64-i64:64-i128:128-f80:128-n8:16:32:64-S128"
target triple = "x86_64-unknown-linux-gnu"

; Function Attrs: nounwind sspstrong uwtable
define dso_local i32 @qemu_timeout_ns_to_ms(i64 noundef %ns) #0 {
entry:
  %retval = alloca i32, align 4
  %ns.addr = alloca i64, align 8
  %ms = alloca i64, align 8
  %_a2 = alloca i64, align 8
  %_b3 = alloca i64, align 8
  %tmp = alloca i64, align 8
  store i64 %ns, ptr %ns.addr, align 8
  %0 = load i64, ptr %ns.addr, align 8
  %cmp = icmp slt i64 %0, 0
  br i1 %cmp, label %if.then, label %if.end

if.then:                                          ; preds = %entry
  store i32 -1, ptr %retval, align 4
  br label %return

if.end:                                           ; preds = %entry
  %1 = load i64, ptr %ns.addr, align 8
  %tobool = icmp ne i64 %1, 0
  br i1 %tobool, label %if.end2, label %if.then1

if.then1:                                         ; preds = %if.end
  store i32 0, ptr %retval, align 4
  br label %return

if.end2:                                          ; preds = %if.end
  %2 = load i64, ptr %ns.addr, align 8
  %add = add i64 %2, 1000000
  %sub = sub i64 %add, 1
  %div = sdiv i64 %sub, 1000000
  store i64 %div, ptr %ms, align 8
  %3 = load i64, ptr %ms, align 8
  store i64 %3, ptr %_a2, align 8
  store i64 2147483647, ptr %_b3, align 8
  %4 = load i64, ptr %_a2, align 8
  %5 = load i64, ptr %_b3, align 8
  %cmp3 = icmp slt i64 %4, %5
  br i1 %cmp3, label %cond.true, label %cond.false

cond.true:                                        ; preds = %if.end2
  %6 = load i64, ptr %_a2, align 8
  br label %cond.end

cond.false:                                       ; preds = %if.end2
  %7 = load i64, ptr %_b3, align 8
  br label %cond.end

cond.end:                                         ; preds = %cond.false, %cond.true
  %cond = phi i64 [ %6, %cond.true ], [ %7, %cond.false ]
  store i64 %cond, ptr %tmp, align 8
  %8 = load i64, ptr %tmp, align 8
  %conv = trunc i64 %8 to i32
  store i32 %conv, ptr %retval, align 4
  br label %return

return:                                           ; preds = %cond.end, %if.then1, %if.then
  %9 = load i32, ptr %retval, align 4
  ret i32 %9
}