; Function Attrs: mustprogress nofree norecurse nosync nounwind sspstrong willreturn memory(none) uwtable
define dso_local i32 @qemu_timeout_ns_to_ms(i64 noundef %ns) local_unnamed_addr #8 {
entry:
  %cmp = icmp slt i64 %ns, 0
  br i1 %cmp, label %return, label %if.end

if.end:                                           ; preds = %entry
  %tobool.not = icmp eq i64 %ns, 0
  br i1 %tobool.not, label %return, label %if.end2

if.end2:                                          ; preds = %if.end
  %sub = add nuw i64 %ns, 999999
  %div = sdiv i64 %sub, 1000000
  %cond = tail call i64 @llvm.smin.i64(i64 %div, i64 2147483647)
  %conv = trunc i64 %cond to i32
  br label %return

return:                                           ; preds = %if.end, %entry, %if.end2
  %retval.0 = phi i32 [ %conv, %if.end2 ], [ -1, %entry ], [ 0, %if.end ]
  ret i32 %retval.0
}